target datalayout = "e-m:e-p270:32:32-p271:32:32-p272:64:64-i64:64-i128:128-f80:128-n8:16:32:64-S128"
target triple = "x86_64-unknown-linux-gnu"

%"class.icu_75::UObject" = type { ptr }
%"class.icu_75::UnicodeString" = type { %"class.icu_75::Replaceable", %"union.icu_75::UnicodeString::StackBufferOrFields" }
%"class.icu_75::Replaceable" = type { %"class.icu_75::UObject" }
%"union.icu_75::UnicodeString::StackBufferOrFields" = type { %struct.anon.0, [32 x i8] }
%struct.anon.0 = type { i16, i32, i32, ptr }
%"class.icu_75::DateFmtBestPatternKey" = type { %"class.icu_75::LocaleCacheKey", %"class.icu_75::UnicodeString" }
%"class.icu_75::LocaleCacheKey" = type { %"class.icu_75::CacheKey.base", [3 x i8], %"class.icu_75::Locale" }
%"class.icu_75::CacheKey.base" = type { %"class.icu_75::CacheKeyBase.base" }
%"class.icu_75::CacheKeyBase.base" = type <{ %"class.icu_75::UObject", i32, i8 }>
%"class.icu_75::Locale" = type <{ %"class.icu_75::UObject", [12 x i8], [6 x i8], [4 x i8], [2 x i8], i32, [4 x i8], ptr, [157 x i8], [3 x i8], ptr, i8, [7 x i8] }>

; Function Attrs: mustprogress nounwind uwtable
define linkonce_odr void @_ZN6icu_758CacheKeyINS_18DateFmtBestPatternEED2Ev(ptr noundef nonnull align 8 dereferenceable(13) %this) unnamed_addr #0 comdat align 2 {
entry:
  %this.addr = alloca ptr, align 8
  store ptr %this, ptr %this.addr, align 8
  %this1 = load ptr, ptr %this.addr, align 8
  call void @_ZN6icu_7512CacheKeyBaseD2Ev(ptr noundef nonnull align 8 dereferenceable(13) %this1) #7
  ret void
}

; Function Attrs: mustprogress nounwind uwtable
define linkonce_odr void @_ZN6icu_7514LocaleCacheKeyINS_18DateFmtBestPatternEED2Ev(ptr noundef nonnull align 8 dereferenceable(240) %this) unnamed_addr #0 comdat align 2 {
entry:
  %this.addr = alloca ptr, align 8
  store ptr %this, ptr %this.addr, align 8
  %this1 = load ptr, ptr %this.addr, align 8
  store ptr getelementptr inbounds ({ [10 x ptr] }, ptr @_ZTVN6icu_7514LocaleCacheKeyINS_18DateFmtBestPatternEEE, i32 0, i32 0, i32 2), ptr %this1, align 8
  %fLoc = getelementptr inbounds %"class.icu_75::LocaleCacheKey", ptr %this1, i32 0, i32 2
  call void @_ZN6icu_756LocaleD1Ev(ptr noundef nonnull align 8 dereferenceable(217) %fLoc) #7
  call void @_ZN6icu_758CacheKeyINS_18DateFmtBestPatternEED2Ev(ptr noundef nonnull align 8 dereferenceable(13) %this1) #7
  ret void
}

; Function Attrs: mustprogress nounwind uwtable
define void @_ZN6icu_7521DateFmtBestPatternKeyD2Ev(ptr noundef nonnull align 8 dereferenceable(304) %this) unnamed_addr #0 align 2 {
entry:
  %this.addr = alloca ptr, align 8
  store ptr %this, ptr %this.addr, align 8
  %this1 = load ptr, ptr %this.addr, align 8
  store ptr getelementptr inbounds ({ [10 x ptr] }, ptr @_ZTVN6icu_7521DateFmtBestPatternKeyE, i32 0, i32 0, i32 2), ptr %this1, align 8
  %fSkeleton = getelementptr inbounds %"class.icu_75::DateFmtBestPatternKey", ptr %this1, i32 0, i32 1
  call void @_ZN6icu_7513UnicodeStringD1Ev(ptr noundef nonnull align 8 dereferenceable(64) %fSkeleton) #7
  call void @_ZN6icu_7514LocaleCacheKeyINS_18DateFmtBestPatternEED2Ev(ptr noundef nonnull align 8 dereferenceable(240) %this1) #7
  ret void
}