; Function Attrs: mustprogress nounwind uwtable
define void @_ZN6icu_7521DateFmtBestPatternKeyD2Ev(ptr noundef nonnull align 8 dereferenceable(304) %this) unnamed_addr #0 align 2 {
entry:
  store ptr getelementptr inbounds ({ [10 x ptr] }, ptr @_ZTVN6icu_7521DateFmtBestPatternKeyE, i64 0, i32 0, i64 2), ptr %this, align 8
  %fSkeleton = getelementptr inbounds i8, ptr %this, i64 240
  tail call void @_ZN6icu_7513UnicodeStringD1Ev(ptr noundef nonnull align 8 dereferenceable(64) %fSkeleton) #13
  store ptr getelementptr inbounds ({ [10 x ptr] }, ptr @_ZTVN6icu_7514LocaleCacheKeyINS_18DateFmtBestPatternEEE, i64 0, i32 0, i64 2), ptr %this, align 8
  %fLoc.i = getelementptr inbounds i8, ptr %this, i64 16
  tail call void @_ZN6icu_756LocaleD1Ev(ptr noundef nonnull align 8 dereferenceable(217) %fLoc.i) #13
  tail call void @_ZN6icu_7512CacheKeyBaseD2Ev(ptr noundef nonnull align 8 dereferenceable(13) %this) #13
  ret void
}